; Function Attrs: mustprogress uwtable
define hidden void @_ZN3nla9intervalsC2EPNS_4coreER8reslimit(ptr noundef nonnull align 8 dereferenceable(1432) %this, ptr noundef %c, ptr noundef nonnull align 8 dereferenceable(40) %lim) unnamed_addr #3 align 2 {
entry:
  %lra = getelementptr inbounds i8, ptr %c, i64 192
  %0 = load ptr, ptr %lra, align 8
  %m_dependencies.i = getelementptr inbounds i8, ptr %0, i64 1368
  tail call void @_ZN13dep_intervalsC2ER25scoped_dependency_managerIjER8reslimit(ptr noundef nonnull align 8 dereferenceable(1424) %this, ptr noundef nonnull align 8 dereferenceable(72) %m_dependencies.i, ptr noundef nonnull align 8 dereferenceable(40) %lim)
  %m_core = getelementptr inbounds i8, ptr %this, i64 1424
  store ptr %c, ptr %m_core, align 8
  ret void
}